target datalayout = "e-m:e-p270:32:32-p271:32:32-p272:64:64-i64:64-i128:128-f80:128-n8:16:32:64-S128"
target triple = "x86_64-unknown-linux-gnu"

%"class.llvh::MemoryBuffer" = type { ptr, ptr, ptr }
%"class.llvh::StringRef" = type { ptr, i64 }
%"class.llvh::MemoryBufferRef" = type { %"class.llvh::StringRef", %"class.llvh::StringRef" }

; Function Attrs: mustprogress nounwind uwtable
define linkonce_odr hidden noundef i64 @_ZNK4llvh12MemoryBuffer13getBufferSizeEv(ptr noundef nonnull align 8 dereferenceable(24) %this) #0 comdat align 2 {
entry:
  %this.addr = alloca ptr, align 8
  store ptr %this, ptr %this.addr, align 8
  %this1 = load ptr, ptr %this.addr, align 8
  %BufferEnd = getelementptr inbounds %"class.llvh::MemoryBuffer", ptr %this1, i32 0, i32 2
  %0 = load ptr, ptr %BufferEnd, align 8
  %BufferStart = getelementptr inbounds %"class.llvh::MemoryBuffer", ptr %this1, i32 0, i32 1
  %1 = load ptr, ptr %BufferStart, align 8
  %sub.ptr.lhs.cast = ptrtoint ptr %0 to i64
  %sub.ptr.rhs.cast = ptrtoint ptr %1 to i64
  %sub.ptr.sub = sub i64 %sub.ptr.lhs.cast, %sub.ptr.rhs.cast
  ret i64 %sub.ptr.sub
}

; Function Attrs: mustprogress nounwind uwtable
define linkonce_odr hidden void @_ZN4llvh15MemoryBufferRefC2ENS_9StringRefES1_(ptr noundef nonnull align 8 dereferenceable(32) %this, ptr %Buffer.coerce0, i64 %Buffer.coerce1, ptr %Identifier.coerce0, i64 %Identifier.coerce1) unnamed_addr #0 comdat align 2 {
entry:
  %Buffer = alloca %"class.llvh::StringRef", align 8
  %Identifier = alloca %"class.llvh::StringRef", align 8
  %this.addr = alloca ptr, align 8
  %0 = getelementptr inbounds { ptr, i64 }, ptr %Buffer, i32 0, i32 0
  store ptr %Buffer.coerce0, ptr %0, align 8
  %1 = getelementptr inbounds { ptr, i64 }, ptr %Buffer, i32 0, i32 1
  store i64 %Buffer.coerce1, ptr %1, align 8
  %2 = getelementptr inbounds { ptr, i64 }, ptr %Identifier, i32 0, i32 0
  store ptr %Identifier.coerce0, ptr %2, align 8
  %3 = getelementptr inbounds { ptr, i64 }, ptr %Identifier, i32 0, i32 1
  store i64 %Identifier.coerce1, ptr %3, align 8
  store ptr %this, ptr %this.addr, align 8
  %this1 = load ptr, ptr %this.addr, align 8
  %Buffer2 = getelementptr inbounds %"class.llvh::MemoryBufferRef", ptr %this1, i32 0, i32 0
  call void @llvm.memcpy.p0.p0.i64(ptr align 8 %Buffer2, ptr align 8 %Buffer, i64 16, i1 false)
  %Identifier3 = getelementptr inbounds %"class.llvh::MemoryBufferRef", ptr %this1, i32 0, i32 1
  call void @llvm.memcpy.p0.p0.i64(ptr align 8 %Identifier3, ptr align 8 %Identifier, i64 16, i1 false)
  ret void
}

; Function Attrs: mustprogress nounwind uwtable
define linkonce_odr hidden { ptr, i64 } @_ZNK4llvh12MemoryBuffer9getBufferEv(ptr noundef nonnull align 8 dereferenceable(24) %this) #0 comdat align 2 {
entry:
  %this.addr.i = alloca ptr, align 8
  %data.addr.i = alloca ptr, align 8
  %length.addr.i = alloca i64, align 8
  %retval = alloca %"class.llvh::StringRef", align 8
  %this.addr = alloca ptr, align 8
  store ptr %this, ptr %this.addr, align 8
  %this1 = load ptr, ptr %this.addr, align 8
  %BufferStart = getelementptr inbounds %"class.llvh::MemoryBuffer", ptr %this1, i32 0, i32 1
  %0 = load ptr, ptr %BufferStart, align 8
  %call = call noundef i64 @_ZNK4llvh12MemoryBuffer13getBufferSizeEv(ptr noundef nonnull align 8 dereferenceable(24) %this1)
  store ptr %retval, ptr %this.addr.i, align 8
  store ptr %0, ptr %data.addr.i, align 8
  store i64 %call, ptr %length.addr.i, align 8
  %this1.i = load ptr, ptr %this.addr.i, align 8
  %1 = load ptr, ptr %data.addr.i, align 8
  store ptr %1, ptr %this1.i, align 8
  %Length.i = getelementptr inbounds %"class.llvh::StringRef", ptr %this1.i, i32 0, i32 1
  %2 = load i64, ptr %length.addr.i, align 8
  store i64 %2, ptr %Length.i, align 8
  %3 = load { ptr, i64 }, ptr %retval, align 8
  ret { ptr, i64 } %3
}

; Function Attrs: mustprogress nounwind uwtable
define hidden void @_ZNK4llvh12MemoryBuffer15getMemBufferRefEv(ptr noalias sret(%"class.llvh::MemoryBufferRef") align 8 %agg.result, ptr noundef nonnull align 8 dereferenceable(24) %this) #0 align 2 {
entry:
  %this.addr = alloca ptr, align 8
  %Data = alloca %"class.llvh::StringRef", align 8
  %Identifier = alloca %"class.llvh::StringRef", align 8
  %agg.tmp = alloca %"class.llvh::StringRef", align 8
  %agg.tmp3 = alloca %"class.llvh::StringRef", align 8
  store ptr %this, ptr %this.addr, align 8
  %this1 = load ptr, ptr %this.addr, align 8
  %call = call { ptr, i64 } @_ZNK4llvh12MemoryBuffer9getBufferEv(ptr noundef nonnull align 8 dereferenceable(24) %this1)
  %0 = getelementptr inbounds { ptr, i64 }, ptr %Data, i32 0, i32 0
  %1 = extractvalue { ptr, i64 } %call, 0
  store ptr %1, ptr %0, align 8
  %2 = getelementptr inbounds { ptr, i64 }, ptr %Data, i32 0, i32 1
  %3 = extractvalue { ptr, i64 } %call, 1
  store i64 %3, ptr %2, align 8
  %vtable = load ptr, ptr %this1, align 8
  %vfn = getelementptr inbounds ptr, ptr %vtable, i64 2
  %4 = load ptr, ptr %vfn, align 8
  %call2 = call { ptr, i64 } %4(ptr noundef nonnull align 8 dereferenceable(24) %this1)
  %5 = getelementptr inbounds { ptr, i64 }, ptr %Identifier, i32 0, i32 0
  %6 = extractvalue { ptr, i64 } %call2, 0
  store ptr %6, ptr %5, align 8
  %7 = getelementptr inbounds { ptr, i64 }, ptr %Identifier, i32 0, i32 1
  %8 = extractvalue { ptr, i64 } %call2, 1
  store i64 %8, ptr %7, align 8
  call void @llvm.memcpy.p0.p0.i64(ptr align 8 %agg.tmp, ptr align 8 %Data, i64 16, i1 false)
  call void @llvm.memcpy.p0.p0.i64(ptr align 8 %agg.tmp3, ptr align 8 %Identifier, i64 16, i1 false)
  %9 = getelementptr inbounds { ptr, i64 }, ptr %agg.tmp, i32 0, i32 0
  %10 = load ptr, ptr %9, align 8
  %11 = getelementptr inbounds { ptr, i64 }, ptr %agg.tmp, i32 0, i32 1
  %12 = load i64, ptr %11, align 8
  %13 = getelementptr inbounds { ptr, i64 }, ptr %agg.tmp3, i32 0, i32 0
  %14 = load ptr, ptr %13, align 8
  %15 = getelementptr inbounds { ptr, i64 }, ptr %agg.tmp3, i32 0, i32 1
  %16 = load i64, ptr %15, align 8
  call void @_ZN4llvh15MemoryBufferRefC2ENS_9StringRefES1_(ptr noundef nonnull align 8 dereferenceable(32) %agg.result, ptr %10, i64 %12, ptr %14, i64 %16)
  ret void
}