; Function Attrs: mustprogress nounwind uwtable
define hidden void @_ZNK4llvh12MemoryBuffer15getMemBufferRefEv(ptr noalias nocapture writeonly sret(%"class.llvh::MemoryBufferRef") align 8 %agg.result, ptr noundef nonnull align 8 dereferenceable(24) %this) local_unnamed_addr #4 align 2 {
entry:
  %BufferStart.i = getelementptr inbounds i8, ptr %this, i64 8
  %0 = load ptr, ptr %BufferStart.i, align 8
  %BufferEnd.i.i = getelementptr inbounds i8, ptr %this, i64 16
  %1 = load ptr, ptr %BufferEnd.i.i, align 8
  %sub.ptr.lhs.cast.i.i = ptrtoint ptr %1 to i64
  %sub.ptr.rhs.cast.i.i = ptrtoint ptr %0 to i64
  %sub.ptr.sub.i.i = sub i64 %sub.ptr.lhs.cast.i.i, %sub.ptr.rhs.cast.i.i
  %vtable = load ptr, ptr %this, align 8
  %vfn = getelementptr inbounds i8, ptr %vtable, i64 16
  %2 = load ptr, ptr %vfn, align 8
  %call2 = tail call { ptr, i64 } %2(ptr noundef nonnull align 8 dereferenceable(24) %this) #22
  %3 = extractvalue { ptr, i64 } %call2, 0
  %4 = extractvalue { ptr, i64 } %call2, 1
  store ptr %0, ptr %agg.result, align 8
  %Buffer.sroa.2.0.Buffer2.sroa_idx.i = getelementptr inbounds i8, ptr %agg.result, i64 8
  store i64 %sub.ptr.sub.i.i, ptr %Buffer.sroa.2.0.Buffer2.sroa_idx.i, align 8
  %Identifier3.i = getelementptr inbounds i8, ptr %agg.result, i64 16
  store ptr %3, ptr %Identifier3.i, align 8
  %Identifier.sroa.2.0.Identifier3.sroa_idx.i = getelementptr inbounds i8, ptr %agg.result, i64 24
  store i64 %4, ptr %Identifier.sroa.2.0.Identifier3.sroa_idx.i, align 8
  ret void
}